target datalayout = "e-m:e-p270:32:32-p271:32:32-p272:64:64-i64:64-i128:128-f80:128-n8:16:32:64-S128"
target triple = "x86_64-pc-linux-gnu"

%struct.rb_vm_struct = type { i64, %struct.anon.5, ptr, i64, %struct.ccan_list_head, i32, i8, i64, ptr, [5 x i64], i64, i64, i64, i64, i64, i64, i64, i64, i64, ptr, ptr, ptr, %struct.anon.9, ptr, i32, %struct.ccan_list_head, %union.pthread_mutex_t, i64, i64, i64, i64, i32, %struct.anon.10, ptr, ptr, ptr, ptr, ptr, ptr, ptr, ptr, i64, [1023 x ptr], %struct.anon.11 }
%struct.anon.5 = type { %struct.ccan_list_head, i32, i32, ptr, ptr, %struct.anon.6, %struct.anon.8 }
%struct.anon.6 = type { %union.pthread_mutex_t, ptr, i32, %union.pthread_cond_t, i8 }
%union.pthread_cond_t = type { %struct.__pthread_cond_s }
%struct.__pthread_cond_s = type { %union.__atomic_wide_counter, %union.__atomic_wide_counter, [2 x i32], [2 x i32], i32, i32, [2 x i32] }
%union.__atomic_wide_counter = type { i64 }
%struct.anon.8 = type { %union.pthread_mutex_t, ptr, i8, %union.pthread_cond_t, i32, i32, i32, i32, %struct.ccan_list_head, i32, %struct.ccan_list_head, %struct.ccan_list_head, %struct.ccan_list_head, i8, %union.pthread_cond_t, %union.pthread_cond_t, i8, i32, i32 }
%struct.anon.9 = type { [65 x i64] }
%struct.ccan_list_head = type { %struct.ccan_list_node }
%struct.ccan_list_node = type { ptr, ptr }
%union.pthread_mutex_t = type { %struct.__pthread_mutex_s }
%struct.__pthread_mutex_s = type { i32, i32, i32, i32, i32, i16, i16, %struct.__pthread_internal_list }
%struct.__pthread_internal_list = type { ptr, ptr }
%struct.anon.10 = type { ptr, ptr }
%struct.anon.11 = type { i64, i64, i64, i64 }

; Function Attrs: nounwind sspstrong uwtable
define internal void @vm_cond_wait(ptr noundef %0, ptr noundef %1, i64 noundef %2) #0 {
  %4 = alloca ptr, align 8
  %5 = alloca ptr, align 8
  %6 = alloca i64, align 8
  %7 = alloca i32, align 4
  %8 = alloca ptr, align 8
  store ptr %0, ptr %4, align 8, !tbaa !7
  store ptr %1, ptr %5, align 8, !tbaa !71
  store i64 %2, ptr %6, align 8, !tbaa !72
  call void @llvm.lifetime.start.p0(i64 4, ptr %7) #9
  %9 = load ptr, ptr %4, align 8, !tbaa !7
  %10 = getelementptr inbounds nuw %struct.rb_vm_struct, ptr %9, i32 0, i32 1
  %11 = getelementptr inbounds nuw %struct.anon.5, ptr %10, i32 0, i32 5
  %12 = getelementptr inbounds nuw %struct.anon.6, ptr %11, i32 0, i32 2
  %13 = load i32, ptr %12, align 8, !tbaa !69
  store i32 %13, ptr %7, align 4, !tbaa !70
  call void @llvm.lifetime.start.p0(i64 8, ptr %8) #9
  %14 = load ptr, ptr %4, align 8, !tbaa !7
  %15 = getelementptr inbounds nuw %struct.rb_vm_struct, ptr %14, i32 0, i32 1
  %16 = getelementptr inbounds nuw %struct.anon.5, ptr %15, i32 0, i32 5
  %17 = getelementptr inbounds nuw %struct.anon.6, ptr %16, i32 0, i32 1
  %18 = load ptr, ptr %17, align 8, !tbaa !12
  store ptr %18, ptr %8, align 8, !tbaa !39
  %19 = load ptr, ptr %4, align 8, !tbaa !7
  %20 = getelementptr inbounds nuw %struct.rb_vm_struct, ptr %19, i32 0, i32 1
  %21 = getelementptr inbounds nuw %struct.anon.5, ptr %20, i32 0, i32 5
  %22 = getelementptr inbounds nuw %struct.anon.6, ptr %21, i32 0, i32 2
  store i32 0, ptr %22, align 8, !tbaa !69
  %23 = load ptr, ptr %4, align 8, !tbaa !7
  %24 = getelementptr inbounds nuw %struct.rb_vm_struct, ptr %23, i32 0, i32 1
  %25 = getelementptr inbounds nuw %struct.anon.5, ptr %24, i32 0, i32 5
  %26 = getelementptr inbounds nuw %struct.anon.6, ptr %25, i32 0, i32 1
  store ptr null, ptr %26, align 8, !tbaa !12
  %27 = load i64, ptr %6, align 8, !tbaa !72
  %28 = icmp ugt i64 %27, 0
  br i1 %28, label %29, label %36

29:                                               ; preds = %3
  %30 = load ptr, ptr %5, align 8, !tbaa !71
  %31 = load ptr, ptr %4, align 8, !tbaa !7
  %32 = getelementptr inbounds nuw %struct.rb_vm_struct, ptr %31, i32 0, i32 1
  %33 = getelementptr inbounds nuw %struct.anon.5, ptr %32, i32 0, i32 5
  %34 = getelementptr inbounds nuw %struct.anon.6, ptr %33, i32 0, i32 0
  %35 = load i64, ptr %6, align 8, !tbaa !72
  call void @rb_native_cond_timedwait(ptr noundef %30, ptr noundef %34, i64 noundef %35)
  br label %42

36:                                               ; preds = %3
  %37 = load ptr, ptr %5, align 8, !tbaa !71
  %38 = load ptr, ptr %4, align 8, !tbaa !7
  %39 = getelementptr inbounds nuw %struct.rb_vm_struct, ptr %38, i32 0, i32 1
  %40 = getelementptr inbounds nuw %struct.anon.5, ptr %39, i32 0, i32 5
  %41 = getelementptr inbounds nuw %struct.anon.6, ptr %40, i32 0, i32 0
  call void @rb_native_cond_wait(ptr noundef %37, ptr noundef %41)
  br label %42

42:                                               ; preds = %36, %29
  %43 = load i32, ptr %7, align 4, !tbaa !70
  %44 = load ptr, ptr %4, align 8, !tbaa !7
  %45 = getelementptr inbounds nuw %struct.rb_vm_struct, ptr %44, i32 0, i32 1
  %46 = getelementptr inbounds nuw %struct.anon.5, ptr %45, i32 0, i32 5
  %47 = getelementptr inbounds nuw %struct.anon.6, ptr %46, i32 0, i32 2
  store i32 %43, ptr %47, align 8, !tbaa !69
  %48 = load ptr, ptr %8, align 8, !tbaa !39
  %49 = load ptr, ptr %4, align 8, !tbaa !7
  %50 = getelementptr inbounds nuw %struct.rb_vm_struct, ptr %49, i32 0, i32 1
  %51 = getelementptr inbounds nuw %struct.anon.5, ptr %50, i32 0, i32 5
  %52 = getelementptr inbounds nuw %struct.anon.6, ptr %51, i32 0, i32 1
  store ptr %48, ptr %52, align 8, !tbaa !12
  call void @llvm.lifetime.end.p0(i64 8, ptr %8) #9
  call void @llvm.lifetime.end.p0(i64 4, ptr %7) #9
  ret void
}

; Function Attrs: nounwind sspstrong uwtable
define hidden void @rb_vm_cond_timedwait(ptr noundef %0, ptr noundef %1, i64 noundef %2) #0 {
  %4 = alloca ptr, align 8
  %5 = alloca ptr, align 8
  %6 = alloca i64, align 8
  store ptr %0, ptr %4, align 8, !tbaa !7
  store ptr %1, ptr %5, align 8, !tbaa !71
  store i64 %2, ptr %6, align 8, !tbaa !72
  %7 = load ptr, ptr %4, align 8, !tbaa !7
  %8 = load ptr, ptr %5, align 8, !tbaa !71
  %9 = load i64, ptr %6, align 8, !tbaa !72
  call void @vm_cond_wait(ptr noundef %7, ptr noundef %8, i64 noundef %9)
  ret void
}