; Function Attrs: nounwind sspstrong uwtable
define hidden void @rb_vm_cond_timedwait(ptr noundef %0, ptr noundef %1, i64 noundef %2) local_unnamed_addr #2 {
  %4 = getelementptr inbounds nuw i8, ptr %0, i64 48
  %5 = getelementptr inbounds nuw i8, ptr %0, i64 96
  %6 = load i32, ptr %5, align 8, !tbaa !61
  %7 = getelementptr inbounds nuw i8, ptr %0, i64 88
  %8 = load ptr, ptr %7, align 8, !tbaa !12
  store i32 0, ptr %5, align 8, !tbaa !61
  store ptr null, ptr %7, align 8, !tbaa !12
  %.not.i = icmp eq i64 %2, 0
  br i1 %.not.i, label %10, label %9

9:                                                ; preds = %3
  tail call void @rb_native_cond_timedwait(ptr noundef %1, ptr noundef nonnull %4, i64 noundef %2) #7
  br label %vm_cond_wait.exit

10:                                               ; preds = %3
  tail call void @rb_native_cond_wait(ptr noundef %1, ptr noundef nonnull %4) #7
  br label %vm_cond_wait.exit

vm_cond_wait.exit:                                ; preds = %9, %10
  store i32 %6, ptr %5, align 8, !tbaa !61
  store ptr %8, ptr %7, align 8, !tbaa !12
  ret void
}